Certificate:
    Data:
        Version: 3 (0x2)
        Serial Number:
            9a:3e:d9:92:1c:d2:73:8e:6a:33:bc:b4:24:12:e3:0d
    Signature Algorithm: sha256WithRSAEncryption
        Issuer: CN=ptp-ca
        Validity
            Not Before: Jul 17 19:36:08 2017 GMT
            Not After : Jul 15 19:36:08 2027 GMT
        Subject: CN=ptp-intermediate-ca-01
        Subject Public Key Info:
            Public Key Algorithm: rsaEncryption
                Public-Key: (4096 bit)
                Modulus:
                    00:b7:9d:6e:b1:00:41:f1:dd:dc:b3:31:a3:d7:89:
                    fa:38:f9:b9:13:7f:65:34:8c:e8:49:a1:36:7c:23:
                    f7:3e:b6:e9:97:b0:95:c1:df:a3:b4:ae:63:f7:4c:
                    9e:8b:1a:b5:fb:a5:c7:5f:a9:d7:e5:74:f2:dd:ba:
                    9a:92:20:cb:31:4b:b2:23:75:0e:1b:31:42:c0:fd:
                    28:c7:aa:6e:ea:c7:eb:b9:d4:af:02:92:7d:32:05:
                    3f:dc:60:8c:70:13:dc:83:4c:e2:bc:89:5a:8f:f0:
                    fc:b1:9a:ee:96:8f:1c:2e:86:de:a8:f2:1f:0d:6c:
                    89:30:42:e1:89:8d:7d:aa:ca:f3:d6:71:9e:48:47:
                    fc:a7:b4:ed:7f:40:d4:e9:a1:7e:11:16:8f:1b:d0:
                    dd:14:9c:92:91:ba:78:ef:b2:e0:62:0f:f9:ab:15:
                    63:d4:13:01:17:fa:d6:e8:94:f8:a4:28:78:2b:5e:
                    66:91:02:39:22:71:e3:43:04:93:0c:4e:1f:6b:fc:
                    7d:3c:2a:ef:7a:92:ff:c5:cd:c2:a6:08:70:c7:62:
                    fb:ba:91:fd:ee:94:b4:aa:e4:f8:e5:cc:aa:0f:78:
                    18:b7:47:27:78:fd:65:72:8f:e7:29:43:2b:d6:f4:
                    36:bb:b8:42:61:29:9d:8a:e9:ba:19:90:83:9e:92:
                    fe:ec:94:ff:e9:90:bc:3d:b6:14:6c:24:85:1e:39:
                    1c:8c:77:5d:72:cc:c0:20:b5:b6:85:63:78:d2:c2:
                    f7:a4:69:da:80:88:09:b0:15:32:01:25:d4:8e:f0:
                    fe:65:5a:79:8e:43:41:de:dd:61:1b:54:d1:50:3a:
                    89:03:2e:ef:cd:77:f0:e2:74:33:07:47:76:09:17:
                    7b:e1:62:13:b4:e2:40:b5:ca:31:19:23:08:b2:34:
                    8f:eb:56:8f:c1:c8:a0:24:dc:ac:00:41:ff:7f:65:
                    6c:32:49:2d:81:38:7c:4e:7f:dd:44:50:1e:56:a4:
                    1b:d3:59:8a:8e:cd:ff:50:87:9b:54:9e:2b:02:48:
                    bc:25:a3:f4:69:ee:34:36:3d:84:e6:a7:fa:95:cd:
                    8f:0e:70:a9:f9:1f:b6:0a:58:dd:0a:ef:71:bb:d4:
                    cd:c0:21:a1:14:24:f2:79:7b:88:3e:f0:fa:a8:38:
                    cb:93:3e:43:f4:a0:a6:94:06:38:92:d3:d3:4c:3b:
                    e6:da:6d:d4:a4:ce:b6:19:21:73:7c:01:19:1a:cd:
                    c6:d3:42:43:31:94:ae:fb:b0:cb:b6:ca:fb:76:59:
                    40:15:ad:52:8c:07:b9:0a:a6:0e:2d:b3:8d:2b:01:
                    93:2d:7a:f1:7e:c3:ed:aa:aa:bf:3f:7e:05:cb:d0:
                    c9:f9:27
                Exponent: 65537 (0x10001)
        X509v3 extensions:
            X509v3 Basic Constraints: 
                CA:TRUE
            X509v3 Subject Key Identifier: 
                58:1D:59:49:8F:3B:47:14:42:0F:E2:EA:86:7A:C0:C6:FB:2B:3A:C5
            X509v3 Authority Key Identifier: 
                keyid:83:66:7C:04:0E:9E:76:C0:3F:2F:AD:7E:81:D0:26:72:B3:90:BA:E5
                DirName:/CN=ptp-ca
                serial:8C:6F:F2:C8:8D:F0:89:15

            X509v3 Key Usage: 
                Certificate Sign, CRL Sign
    Signature Algorithm: sha256WithRSAEncryption
         57:b6:87:d2:dd:83:37:11:90:89:8d:3d:b4:79:fe:22:e2:18:
         17:c7:c6:c7:16:2b:52:74:f4:44:a5:2a:b4:61:0a:e0:13:dd:
         4c:19:0f:cc:3c:14:63:18:7b:40:8b:50:0d:c4:05:ba:bd:4b:
         c3:46:b1:55:7b:1f:7f:51:36:4f:52:9a:d8:93:17:fc:45:2d:
         58:d5:6d:67:3f:22:b8:6d:ee:86:68:d5:3b:48:dc:4d:dc:d8:
         b2:98:7e:36:f9:83:e2:49:6c:ed:5e:8d:8a:af:a1:a2:e5:c2:
         16:a2:ec:a6:24:01:aa:84:1e:79:51:de:4c:b8:e4:93:1a:43:
         c5:51:3e:7d:0e:ba:f6:ef:a5:6b:3f:60:33:e1:9c:35:4c:bf:
         5d:69:15:13:f6:48:8d:12:32:55:61:f2:fa:85:7f:9f:27:2a:
         29:c6:ae:34:09:47:c2:07:7b:36:16:a7:f4:68:26:bf:39:3c:
         1e:f4:76:e0:c8:23:0e:4f:6d:24:62:03:e6:4e:73:d1:4e:85:
         91:47:2f:7b:cb:ac:68:dd:70:d4:ef:02:b5:3e:01:bf:44:0c:
         dd:2f:41:c9:84:d2:22:2b:65:35:e9:f5:f3:8d:e9:13:31:d5:
         ef:3f:dd:88:fe:bf:84:ed:95:b1:05:b7:5e:0b:9b:10:84:c3:
         a5:ed:90:16:9d:c9:ba:3e:33:26:05:28:9e:0d:7e:0d:ea:b9:
         58:2c:d7:91:5d:48:26:f6:47:d5:6b:31:4a:e7:12:07:47:2e:
         15:13:ca:68:5a:dc:e1:d6:cd:ee:dd:b8:a9:45:91:d9:8b:f0:
         88:10:61:d5:ca:66:0d:ae:46:2b:c6:e0:b4:28:c3:0f:d8:77:
         d4:2d:8d:48:3c:b8:69:e2:0d:d1:bd:15:c7:f5:15:e8:ba:cc:
         1e:2e:77:43:8b:fd:30:bb:44:34:1c:19:63:08:b9:b6:b2:00:
         93:6f:96:ac:37:23:4c:18:02:49:a9:89:a2:e2:09:eb:60:8d:
         e2:39:14:75:ad:d0:5c:bf:95:40:ec:90:94:95:d5:21:fa:aa:
         53:f5:41:d3:a8:47:70:6f:6f:34:cf:70:b6:f8:38:ca:93:57:
         94:0c:ad:c6:9e:1e:39:c2:94:a7:da:57:f0:3d:4d:72:a6:4f:
         fa:48:ef:bd:ea:7c:90:34:6f:83:6c:37:5e:92:18:e8:9d:a6:
         9f:42:a8:5a:8a:7e:43:7a:6b:0a:10:a7:67:ea:a4:77:4e:ac:
         1c:a4:aa:99:dd:cb:04:7b:87:e0:78:4a:08:d4:d5:fa:d7:55:
         49:8e:74:78:6a:38:08:11:d5:ff:0c:6b:7f:6d:cd:fe:0e:d0:
         18:07:7d:fa:52:c3:ca:63
-----BEGIN CERTIFICATE-----
MIIFPDCCAySgAwIBAgIRAJo+2ZIc0nOOajO8tCQS4w0wDQYJKoZIhvcNAQELBQAw
ETEPMA0GA1UEAwwGcHRwLWNhMB4XDTE3MDcxNzE5MzYwOFoXDTI3MDcxNTE5MzYw
OFowITEfMB0GA1UEAwwWcHRwLWludGVybWVkaWF0ZS1jYS0wMTCCAiIwDQYJKoZI
hvcNAQEBBQADggIPADCCAgoCggIBALedbrEAQfHd3LMxo9eJ+jj5uRN/ZTSM6Emh
Nnwj9z626ZewlcHfo7SuY/dMnosatfulx1+p1+V08t26mpIgyzFLsiN1DhsxQsD9
KMeqburH67nUrwKSfTIFP9xgjHAT3INM4ryJWo/w/LGa7paPHC6G3qjyHw1siTBC
4YmNfarK89ZxnkhH/Ke07X9A1OmhfhEWjxvQ3RSckpG6eO+y4GIP+asVY9QTARf6
1uiU+KQoeCteZpECOSJx40MEkwxOH2v8fTwq73qS/8XNwqYIcMdi+7qR/e6UtKrk
+OXMqg94GLdHJ3j9ZXKP5ylDK9b0Nru4QmEpnYrpuhmQg56S/uyU/+mQvD22FGwk
hR45HIx3XXLMwCC1toVjeNLC96Rp2oCICbAVMgEl1I7w/mVaeY5DQd7dYRtU0VA6
iQMu78138OJ0MwdHdgkXe+FiE7TiQLXKMRkjCLI0j+tWj8HIoCTcrABB/39lbDJJ
LYE4fE5/3URQHlakG9NZio7N/1CHm1SeKwJIvCWj9GnuNDY9hOan+pXNjw5wqfkf
tgpY3QrvcbvUzcAhoRQk8nl7iD7w+qg4y5M+Q/SgppQGOJLT00w75tpt1KTOthkh
c3wBGRrNxtNCQzGUrvuwy7bK+3ZZQBWtUowHuQqmDi2zjSsBky168X7D7aqqvz9+
BcvQyfknAgMBAAGjfzB9MAwGA1UdEwQFMAMBAf8wHQYDVR0OBBYEFFgdWUmPO0cU
Qg/i6oZ6wMb7KzrFMEEGA1UdIwQ6MDiAFINmfAQOnnbAPy+tfoHQJnKzkLrloRWk
EzARMQ8wDQYDVQQDDAZwdHAtY2GCCQCMb/LIjfCJFTALBgNVHQ8EBAMCAQYwDQYJ
KoZIhvcNAQELBQADggIBAFe2h9LdgzcRkImNPbR5/iLiGBfHxscWK1J09ESlKrRh
CuAT3UwZD8w8FGMYe0CLUA3EBbq9S8NGsVV7H39RNk9SmtiTF/xFLVjVbWc/Irht
7oZo1TtI3E3c2LKYfjb5g+JJbO1ejYqvoaLlwhai7KYkAaqEHnlR3ky45JMaQ8VR
Pn0OuvbvpWs/YDPhnDVMv11pFRP2SI0SMlVh8vqFf58nKinGrjQJR8IHezYWp/Ro
Jr85PB70duDIIw5PbSRiA+ZOc9FOhZFHL3vLrGjdcNTvArU+Ab9EDN0vQcmE0iIr
ZTXp9fON6RMx1e8/3Yj+v4TtlbEFt14LmxCEw6XtkBadybo+MyYFKJ4Nfg3quVgs
15FdSCb2R9VrMUrnEgdHLhUTymha3OHWze7duKlFkdmL8IgQYdXKZg2uRivG4LQo
ww/Yd9QtjUg8uGniDdG9Fcf1Fei6zB4ud0OL/TC7RDQcGWMIubayAJNvlqw3I0wY
AkmpiaLiCetgjeI5FHWt0Fy/lUDskJSV1SH6qlP1QdOoR3BvbzTPcLb4OMqTV5QM
rcaeHjnClKfaV/A9TXKmT/pI773qfJA0b4NsN16SGOidpp9CqFqKfkN6awoQp2fq
pHdOrBykqpndywR7h+B4SgjU1frXVUmOdHhqOAgR1f8Ma39tzf4O0BgHffpSw8pj
-----END CERTIFICATE-----
-----BEGIN CERTIFICATE-----
MIIFJDCCAwygAwIBAgIJAIxv8siN8IkVMA0GCSqGSIb3DQEBCwUAMBExDzANBgNV
BAMMBnB0cC1jYTAeFw0xNzA3MTcxOTA0MTZaFw0yNzA3MTUxOTA0MTZaMBExDzAN
BgNVBAMMBnB0cC1jYTCCAiIwDQYJKoZIhvcNAQEBBQADggIPADCCAgoCggIBAJOH
BGnA13+7FN524JQAd+ke+HUAyzZ9b2trX+Sk6hG7GdQHxy3Up8jy9tzqi0IjhD6S
1ywSNVFreybhoLSI3EItJ+VfA4shqEALd/rCIRNuWsddzFpgy2ZxGKyGvGb+nAhh
pZGopXhg4C7HgZNm/MQmHxMJ3teC0dPjoyh5ozD2phmc7Tny99wAHiNKTxXcU2r0
8ssGSfIIaYcm9N96njxh4KAyPqNdAbwdtSz6OG6bPOAGdFkH/Xh3GfWl9d7pyDN/
7vo9CDIWDV+ANAqDdKAvPEBFUNAnU4zNZznXAo0tKOe7vPkyB/IfSJNyWdoQ3uMU
KSSIju8+y1lgGidT365TbL0POhvnmzkPNtGOXnIREp6dXAFqCYFc1OyNWe1uul4P
/P7aBSpmP2BMncn7pUfOx3u4lfy7JZM+2VGXxYw1VSPlD/iARprA2LCOnb+5YOmY
f84El4uCE9zIhuAwfZDbhF1IL7dK1UCDC5PQnpvjHjkrsWmyhM+H7bgKsNEGOSRD
guLFbRFdIzEZZWwLa7XiD08WR4HVNO5KbK0zOusVLxxGLjZT46eMZbO+GeQgO8IN
MFjDF6wkMjEf9ayRgy+fNSxNI5ETnKV7CTyA72o2JTsddgQVOLpdVd9WrXh6QUHR
RQMQHTvTbEAp+bL52X8lq+noi20iAIsyL4BMNUMxAgMBAAGjfzB9MB0GA1UdDgQW
BBSDZnwEDp52wD8vrX6B0CZys5C65TBBBgNVHSMEOjA4gBSDZnwEDp52wD8vrX6B
0CZys5C65aEVpBMwETEPMA0GA1UEAwwGcHRwLWNhggkAjG/yyI3wiRUwDAYDVR0T
BAUwAwEB/zALBgNVHQ8EBAMCAQYwDQYJKoZIhvcNAQELBQADggIBAHxMgoil2vdi
OPg96XPQsxTR6o+wvmzSS1Cb4lUSEG5tVuGgfHtHv6KRpqRYyQPR6moZeCSGDWRG
KFjnolh5wgrksvtKwxlTEmrfoUlNPJMcUTre+HUghv9KTjXdVkaAppSwmSfoUo3o
Xf3MJyHhPWStyXweempBKIc8Y0JU8Rmfc32HVo2nfFHsDRshGIG06gyhXgUDaO/p
0YCHC6CjCkt4attt4O5QpVZ5eLgHr5BwqNs8Cd3ogAymLs8XCJfByaKvLBYJ0l5T
4Q38LRuc68jrM2jy1SeeZQIOKFb6fsANMsZvp/iVoeKPyAG2V78VFVwymdAWuTUI
5UnczKqdJcrHGoP5AZlL0UX2l0+f0oJLDfT0v/EZUVKxiT9eyKXxZReqpRvD5Hl1
C67uxoyasGSbNiDyAgS/m5jHC+kR1rcHromnRwK6wg51tGdcnUER5fXQXfUNkjHo
HGfykkykvtEj07XgK/xbZxysktmgobkwL0nT40xsLwsPjy8Cm51T5CGxxeWaNdLe
6i1H2rPbI4X4TEUImDkgcM99yNmrEnW+LzxYQgi4u0AXKPS5i+KdR2M/OPeMpD5Q
Twh2WjkLTAVG/mH7ukho5SugTIWNmhrBnRbD4LlqccpsnJ5FAUTBa7AGy6fUH78K
mV+KsnM8Vv6jf13UWek11favECHcvnn1
-----END CERTIFICATE-----
